target datalayout = "e-m:e-p270:32:32-p271:32:32-p272:64:64-i64:64-i128:128-f80:128-n8:16:32:64-S128"
target triple = "x86_64-pc-linux-gnu"

@rawoutstream = external global ptr, align 8
@.str.19 = private unnamed_addr constant [35 x i8] c"usage: %s [OPTIONS] FILE GROUP...\0A\00", align 1
@.str.20 = private unnamed_addr constant [12 x i8] c"   OPTIONS\0A\00", align 1
@.str.21 = private unnamed_addr constant [57 x i8] c"      -h, --help         Print a usage message and exit\0A\00", align 1
@.str.22 = private unnamed_addr constant [77 x i8] c"      -l, --latest       Use latest version of file format to create groups\0A\00", align 1
@.str.23 = private unnamed_addr constant [77 x i8] c"      -p, --parents      No error if existing, make parent groups as needed\0A\00", align 1
@.str.24 = private unnamed_addr constant [70 x i8] c"      -v, --verbose      Print information about OBJECTS and OPTIONS\0A\00", align 1
@.str.25 = private unnamed_addr constant [56 x i8] c"      -V, --version      Print version number and exit\0A\00", align 1
@.str.26 = private unnamed_addr constant [81 x i8] c"      --vol-value        Value (ID) of the VOL connector to use for opening the\0A\00", align 1
@.str.27 = private unnamed_addr constant [46 x i8] c"                         HDF5 file specified\0A\00", align 1
@.str.28 = private unnamed_addr constant [75 x i8] c"      --vol-name         Name of the VOL connector to use for opening the\0A\00", align 1
@.str.29 = private unnamed_addr constant [82 x i8] c"      --vol-info         VOL-specific info to pass to the VOL connector used for\0A\00", align 1
@.str.30 = private unnamed_addr constant [58 x i8] c"                         opening the HDF5 file specified\0A\00", align 1
@.str.31 = private unnamed_addr constant [87 x i8] c"                         If none of the above options are used to specify a VOL, then\0A\00", align 1
@.str.32 = private unnamed_addr constant [92 x i8] c"                         the VOL named by HDF5_VOL_CONNECTOR (or the native VOL connector,\0A\00", align 1
@.str.33 = private unnamed_addr constant [78 x i8] c"                         if that environment variable is unset) will be used\0A\00", align 1
@.str.34 = private unnamed_addr constant [78 x i8] c"      --vfd-value        Value (ID) of the VFL driver to use for opening the\0A\00", align 1
@.str.35 = private unnamed_addr constant [72 x i8] c"      --vfd-name         Name of the VFL driver to use for opening the\0A\00", align 1
@.str.36 = private unnamed_addr constant [79 x i8] c"      --vfd-info         VFD-specific info to pass to the VFL driver used for\0A\00", align 1
@.str.37 = private unnamed_addr constant [2 x i8] c"\0A\00", align 1

; Function Attrs: nounwind uwtable
define internal void @usage(ptr noundef %0) #0 {
  %2 = alloca ptr, align 8
  store ptr %0, ptr %2, align 8
  %3 = load ptr, ptr @rawoutstream, align 8
  %4 = icmp ne ptr %3, null
  br i1 %4, label %5, label %8

5:                                                ; preds = %1
  %6 = load ptr, ptr @rawoutstream, align 8
  %7 = call i32 @fflush(ptr noundef %6)
  br label %8

8:                                                ; preds = %5, %1
  %9 = load ptr, ptr @rawoutstream, align 8
  %10 = icmp ne ptr %9, null
  br i1 %10, label %11, label %15

11:                                               ; preds = %8
  %12 = load ptr, ptr @rawoutstream, align 8
  %13 = load ptr, ptr %2, align 8
  %14 = call i32 (ptr, ptr, ...) @fprintf(ptr noundef %12, ptr noundef @.str.19, ptr noundef %13) #7
  br label %15

15:                                               ; preds = %11, %8
  %16 = load ptr, ptr @rawoutstream, align 8
  %17 = icmp ne ptr %16, null
  br i1 %17, label %18, label %21

18:                                               ; preds = %15
  %19 = load ptr, ptr @rawoutstream, align 8
  %20 = call i32 (ptr, ptr, ...) @fprintf(ptr noundef %19, ptr noundef @.str.20) #7
  br label %21

21:                                               ; preds = %18, %15
  %22 = load ptr, ptr @rawoutstream, align 8
  %23 = icmp ne ptr %22, null
  br i1 %23, label %24, label %27

24:                                               ; preds = %21
  %25 = load ptr, ptr @rawoutstream, align 8
  %26 = call i32 (ptr, ptr, ...) @fprintf(ptr noundef %25, ptr noundef @.str.21) #7
  br label %27

27:                                               ; preds = %24, %21
  %28 = load ptr, ptr @rawoutstream, align 8
  %29 = icmp ne ptr %28, null
  br i1 %29, label %30, label %33

30:                                               ; preds = %27
  %31 = load ptr, ptr @rawoutstream, align 8
  %32 = call i32 (ptr, ptr, ...) @fprintf(ptr noundef %31, ptr noundef @.str.22) #7
  br label %33

33:                                               ; preds = %30, %27
  %34 = load ptr, ptr @rawoutstream, align 8
  %35 = icmp ne ptr %34, null
  br i1 %35, label %36, label %39

36:                                               ; preds = %33
  %37 = load ptr, ptr @rawoutstream, align 8
  %38 = call i32 (ptr, ptr, ...) @fprintf(ptr noundef %37, ptr noundef @.str.23) #7
  br label %39

39:                                               ; preds = %36, %33
  %40 = load ptr, ptr @rawoutstream, align 8
  %41 = icmp ne ptr %40, null
  br i1 %41, label %42, label %45

42:                                               ; preds = %39
  %43 = load ptr, ptr @rawoutstream, align 8
  %44 = call i32 (ptr, ptr, ...) @fprintf(ptr noundef %43, ptr noundef @.str.24) #7
  br label %45

45:                                               ; preds = %42, %39
  %46 = load ptr, ptr @rawoutstream, align 8
  %47 = icmp ne ptr %46, null
  br i1 %47, label %48, label %51

48:                                               ; preds = %45
  %49 = load ptr, ptr @rawoutstream, align 8
  %50 = call i32 (ptr, ptr, ...) @fprintf(ptr noundef %49, ptr noundef @.str.25) #7
  br label %51

51:                                               ; preds = %48, %45
  %52 = load ptr, ptr @rawoutstream, align 8
  %53 = icmp ne ptr %52, null
  br i1 %53, label %54, label %57

54:                                               ; preds = %51
  %55 = load ptr, ptr @rawoutstream, align 8
  %56 = call i32 (ptr, ptr, ...) @fprintf(ptr noundef %55, ptr noundef @.str.26) #7
  br label %57

57:                                               ; preds = %54, %51
  %58 = load ptr, ptr @rawoutstream, align 8
  %59 = icmp ne ptr %58, null
  br i1 %59, label %60, label %63

60:                                               ; preds = %57
  %61 = load ptr, ptr @rawoutstream, align 8
  %62 = call i32 (ptr, ptr, ...) @fprintf(ptr noundef %61, ptr noundef @.str.27) #7
  br label %63

63:                                               ; preds = %60, %57
  %64 = load ptr, ptr @rawoutstream, align 8
  %65 = icmp ne ptr %64, null
  br i1 %65, label %66, label %69

66:                                               ; preds = %63
  %67 = load ptr, ptr @rawoutstream, align 8
  %68 = call i32 (ptr, ptr, ...) @fprintf(ptr noundef %67, ptr noundef @.str.28) #7
  br label %69

69:                                               ; preds = %66, %63
  %70 = load ptr, ptr @rawoutstream, align 8
  %71 = icmp ne ptr %70, null
  br i1 %71, label %72, label %75

72:                                               ; preds = %69
  %73 = load ptr, ptr @rawoutstream, align 8
  %74 = call i32 (ptr, ptr, ...) @fprintf(ptr noundef %73, ptr noundef @.str.27) #7
  br label %75

75:                                               ; preds = %72, %69
  %76 = load ptr, ptr @rawoutstream, align 8
  %77 = icmp ne ptr %76, null
  br i1 %77, label %78, label %81

78:                                               ; preds = %75
  %79 = load ptr, ptr @rawoutstream, align 8
  %80 = call i32 (ptr, ptr, ...) @fprintf(ptr noundef %79, ptr noundef @.str.29) #7
  br label %81

81:                                               ; preds = %78, %75
  %82 = load ptr, ptr @rawoutstream, align 8
  %83 = icmp ne ptr %82, null
  br i1 %83, label %84, label %87

84:                                               ; preds = %81
  %85 = load ptr, ptr @rawoutstream, align 8
  %86 = call i32 (ptr, ptr, ...) @fprintf(ptr noundef %85, ptr noundef @.str.30) #7
  br label %87

87:                                               ; preds = %84, %81
  %88 = load ptr, ptr @rawoutstream, align 8
  %89 = icmp ne ptr %88, null
  br i1 %89, label %90, label %93

90:                                               ; preds = %87
  %91 = load ptr, ptr @rawoutstream, align 8
  %92 = call i32 (ptr, ptr, ...) @fprintf(ptr noundef %91, ptr noundef @.str.31) #7
  br label %93

93:                                               ; preds = %90, %87
  %94 = load ptr, ptr @rawoutstream, align 8
  %95 = icmp ne ptr %94, null
  br i1 %95, label %96, label %99

96:                                               ; preds = %93
  %97 = load ptr, ptr @rawoutstream, align 8
  %98 = call i32 (ptr, ptr, ...) @fprintf(ptr noundef %97, ptr noundef @.str.32) #7
  br label %99

99:                                               ; preds = %96, %93
  %100 = load ptr, ptr @rawoutstream, align 8
  %101 = icmp ne ptr %100, null
  br i1 %101, label %102, label %105

102:                                              ; preds = %99
  %103 = load ptr, ptr @rawoutstream, align 8
  %104 = call i32 (ptr, ptr, ...) @fprintf(ptr noundef %103, ptr noundef @.str.33) #7
  br label %105

105:                                              ; preds = %102, %99
  %106 = load ptr, ptr @rawoutstream, align 8
  %107 = icmp ne ptr %106, null
  br i1 %107, label %108, label %111

108:                                              ; preds = %105
  %109 = load ptr, ptr @rawoutstream, align 8
  %110 = call i32 (ptr, ptr, ...) @fprintf(ptr noundef %109, ptr noundef @.str.34) #7
  br label %111

111:                                              ; preds = %108, %105
  %112 = load ptr, ptr @rawoutstream, align 8
  %113 = icmp ne ptr %112, null
  br i1 %113, label %114, label %117

114:                                              ; preds = %111
  %115 = load ptr, ptr @rawoutstream, align 8
  %116 = call i32 (ptr, ptr, ...) @fprintf(ptr noundef %115, ptr noundef @.str.27) #7
  br label %117

117:                                              ; preds = %114, %111
  %118 = load ptr, ptr @rawoutstream, align 8
  %119 = icmp ne ptr %118, null
  br i1 %119, label %120, label %123

120:                                              ; preds = %117
  %121 = load ptr, ptr @rawoutstream, align 8
  %122 = call i32 (ptr, ptr, ...) @fprintf(ptr noundef %121, ptr noundef @.str.35) #7
  br label %123

123:                                              ; preds = %120, %117
  %124 = load ptr, ptr @rawoutstream, align 8
  %125 = icmp ne ptr %124, null
  br i1 %125, label %126, label %129

126:                                              ; preds = %123
  %127 = load ptr, ptr @rawoutstream, align 8
  %128 = call i32 (ptr, ptr, ...) @fprintf(ptr noundef %127, ptr noundef @.str.27) #7
  br label %129

129:                                              ; preds = %126, %123
  %130 = load ptr, ptr @rawoutstream, align 8
  %131 = icmp ne ptr %130, null
  br i1 %131, label %132, label %135

132:                                              ; preds = %129
  %133 = load ptr, ptr @rawoutstream, align 8
  %134 = call i32 (ptr, ptr, ...) @fprintf(ptr noundef %133, ptr noundef @.str.36) #7
  br label %135

135:                                              ; preds = %132, %129
  %136 = load ptr, ptr @rawoutstream, align 8
  %137 = icmp ne ptr %136, null
  br i1 %137, label %138, label %141

138:                                              ; preds = %135
  %139 = load ptr, ptr @rawoutstream, align 8
  %140 = call i32 (ptr, ptr, ...) @fprintf(ptr noundef %139, ptr noundef @.str.30) #7
  br label %141

141:                                              ; preds = %138, %135
  %142 = load ptr, ptr @rawoutstream, align 8
  %143 = icmp ne ptr %142, null
  br i1 %143, label %144, label %147

144:                                              ; preds = %141
  %145 = load ptr, ptr @rawoutstream, align 8
  %146 = call i32 (ptr, ptr, ...) @fprintf(ptr noundef %145, ptr noundef @.str.37) #7
  br label %147

147:                                              ; preds = %144, %141
  ret void
}