; Function Attrs: nofree nounwind uwtable
define internal fastcc void @usage(ptr noundef %0) unnamed_addr #6 {
  %2 = load ptr, ptr @rawoutstream, align 8
  %.not = icmp eq ptr %2, null
  br i1 %.not, label %.thread132, label %3

3:                                                ; preds = %1
  %4 = tail call i32 @fflush(ptr noundef nonnull %2)
  %.pr = load ptr, ptr @rawoutstream, align 8
  %.not24 = icmp eq ptr %.pr, null
  br i1 %.not24, label %.thread132, label %5

5:                                                ; preds = %3
  %6 = tail call i32 (ptr, ptr, ...) @fprintf(ptr noundef nonnull %.pr, ptr noundef nonnull @.str.19, ptr noundef %0) #12
  %.pr48 = load ptr, ptr @rawoutstream, align 8
  %.not25 = icmp eq ptr %.pr48, null
  br i1 %.not25, label %.thread132, label %.thread49

.thread49:                                        ; preds = %5
  %7 = tail call i64 @fwrite(ptr nonnull @.str.20, i64 11, i64 1, ptr nonnull %.pr48)
  %.pr51.pr = load ptr, ptr @rawoutstream, align 8
  %.not26 = icmp eq ptr %.pr51.pr, null
  br i1 %.not26, label %.thread132, label %8

8:                                                ; preds = %.thread49
  %9 = tail call i64 @fwrite(ptr nonnull @.str.21, i64 56, i64 1, ptr nonnull %.pr51.pr)
  %.pr54 = load ptr, ptr @rawoutstream, align 8
  %.not27 = icmp eq ptr %.pr54, null
  br i1 %.not27, label %.thread132, label %.thread56

.thread56:                                        ; preds = %8
  %10 = tail call i64 @fwrite(ptr nonnull @.str.22, i64 76, i64 1, ptr nonnull %.pr54)
  %.pr59.pr.pr = load ptr, ptr @rawoutstream, align 8
  %.not28 = icmp eq ptr %.pr59.pr.pr, null
  br i1 %.not28, label %.thread132, label %11

11:                                               ; preds = %.thread56
  %12 = tail call i64 @fwrite(ptr nonnull @.str.23, i64 76, i64 1, ptr nonnull %.pr59.pr.pr)
  %.pr62 = load ptr, ptr @rawoutstream, align 8
  %.not29 = icmp eq ptr %.pr62, null
  br i1 %.not29, label %.thread132, label %.thread64

.thread64:                                        ; preds = %11
  %13 = tail call i64 @fwrite(ptr nonnull @.str.24, i64 69, i64 1, ptr nonnull %.pr62)
  %.pr67.pr.pr = load ptr, ptr @rawoutstream, align 8
  %.not30 = icmp eq ptr %.pr67.pr.pr, null
  br i1 %.not30, label %.thread132, label %14

14:                                               ; preds = %.thread64
  %15 = tail call i64 @fwrite(ptr nonnull @.str.25, i64 55, i64 1, ptr nonnull %.pr67.pr.pr)
  %.pr70 = load ptr, ptr @rawoutstream, align 8
  %.not31 = icmp eq ptr %.pr70, null
  br i1 %.not31, label %.thread132, label %.thread72

.thread72:                                        ; preds = %14
  %16 = tail call i64 @fwrite(ptr nonnull @.str.26, i64 80, i64 1, ptr nonnull %.pr70)
  %.pr75.pr.pr.pr = load ptr, ptr @rawoutstream, align 8
  %.not32 = icmp eq ptr %.pr75.pr.pr.pr, null
  br i1 %.not32, label %.thread132, label %17

17:                                               ; preds = %.thread72
  %18 = tail call i64 @fwrite(ptr nonnull @.str.27, i64 45, i64 1, ptr nonnull %.pr75.pr.pr.pr)
  %.pr78 = load ptr, ptr @rawoutstream, align 8
  %.not33 = icmp eq ptr %.pr78, null
  br i1 %.not33, label %.thread132, label %.thread80

.thread80:                                        ; preds = %17
  %19 = tail call i64 @fwrite(ptr nonnull @.str.28, i64 74, i64 1, ptr nonnull %.pr78)
  %.pr83.pr.pr.pr = load ptr, ptr @rawoutstream, align 8
  %.not34 = icmp eq ptr %.pr83.pr.pr.pr, null
  br i1 %.not34, label %.thread132, label %20

20:                                               ; preds = %.thread80
  %21 = tail call i64 @fwrite(ptr nonnull @.str.27, i64 45, i64 1, ptr nonnull %.pr83.pr.pr.pr)
  %.pr86 = load ptr, ptr @rawoutstream, align 8
  %.not35 = icmp eq ptr %.pr86, null
  br i1 %.not35, label %.thread132, label %.thread88

.thread88:                                        ; preds = %20
  %22 = tail call i64 @fwrite(ptr nonnull @.str.29, i64 81, i64 1, ptr nonnull %.pr86)
  %.pr91.pr.pr.pr = load ptr, ptr @rawoutstream, align 8
  %.not36 = icmp eq ptr %.pr91.pr.pr.pr, null
  br i1 %.not36, label %.thread132, label %23

23:                                               ; preds = %.thread88
  %24 = tail call i64 @fwrite(ptr nonnull @.str.30, i64 57, i64 1, ptr nonnull %.pr91.pr.pr.pr)
  %.pr94 = load ptr, ptr @rawoutstream, align 8
  %.not37 = icmp eq ptr %.pr94, null
  br i1 %.not37, label %.thread132, label %.thread96

.thread96:                                        ; preds = %23
  %25 = tail call i64 @fwrite(ptr nonnull @.str.31, i64 86, i64 1, ptr nonnull %.pr94)
  %.pr99.pr.pr.pr = load ptr, ptr @rawoutstream, align 8
  %.not38 = icmp eq ptr %.pr99.pr.pr.pr, null
  br i1 %.not38, label %.thread132, label %26

26:                                               ; preds = %.thread96
  %27 = tail call i64 @fwrite(ptr nonnull @.str.32, i64 91, i64 1, ptr nonnull %.pr99.pr.pr.pr)
  %.pr102 = load ptr, ptr @rawoutstream, align 8
  %.not39 = icmp eq ptr %.pr102, null
  br i1 %.not39, label %.thread132, label %.thread104

.thread104:                                       ; preds = %26
  %28 = tail call i64 @fwrite(ptr nonnull @.str.33, i64 77, i64 1, ptr nonnull %.pr102)
  %.pr107.pr.pr.pr.pr = load ptr, ptr @rawoutstream, align 8
  %.not40 = icmp eq ptr %.pr107.pr.pr.pr.pr, null
  br i1 %.not40, label %.thread132, label %29

29:                                               ; preds = %.thread104
  %30 = tail call i64 @fwrite(ptr nonnull @.str.34, i64 77, i64 1, ptr nonnull %.pr107.pr.pr.pr.pr)
  %.pr110 = load ptr, ptr @rawoutstream, align 8
  %.not41 = icmp eq ptr %.pr110, null
  br i1 %.not41, label %.thread132, label %.thread112

.thread112:                                       ; preds = %29
  %31 = tail call i64 @fwrite(ptr nonnull @.str.27, i64 45, i64 1, ptr nonnull %.pr110)
  %.pr115.pr.pr.pr.pr = load ptr, ptr @rawoutstream, align 8
  %.not42 = icmp eq ptr %.pr115.pr.pr.pr.pr, null
  br i1 %.not42, label %.thread132, label %32

32:                                               ; preds = %.thread112
  %33 = tail call i64 @fwrite(ptr nonnull @.str.35, i64 71, i64 1, ptr nonnull %.pr115.pr.pr.pr.pr)
  %.pr118 = load ptr, ptr @rawoutstream, align 8
  %.not43 = icmp eq ptr %.pr118, null
  br i1 %.not43, label %.thread132, label %.thread120

.thread120:                                       ; preds = %32
  %34 = tail call i64 @fwrite(ptr nonnull @.str.27, i64 45, i64 1, ptr nonnull %.pr118)
  %.pr123.pr.pr.pr.pr = load ptr, ptr @rawoutstream, align 8
  %.not44 = icmp eq ptr %.pr123.pr.pr.pr.pr, null
  br i1 %.not44, label %.thread132, label %35

35:                                               ; preds = %.thread120
  %36 = tail call i64 @fwrite(ptr nonnull @.str.36, i64 78, i64 1, ptr nonnull %.pr123.pr.pr.pr.pr)
  %.pr126 = load ptr, ptr @rawoutstream, align 8
  %.not45 = icmp eq ptr %.pr126, null
  br i1 %.not45, label %.thread132, label %.thread128

.thread128:                                       ; preds = %35
  %37 = tail call i64 @fwrite(ptr nonnull @.str.30, i64 57, i64 1, ptr nonnull %.pr126)
  %.pr131.pr.pr.pr.pr = load ptr, ptr @rawoutstream, align 8
  %.not46 = icmp eq ptr %.pr131.pr.pr.pr.pr, null
  br i1 %.not46, label %.thread132, label %38

38:                                               ; preds = %.thread128
  %fputc = tail call i32 @fputc(i32 10, ptr nonnull %.pr131.pr.pr.pr.pr)
  br label %.thread132

.thread132:                                       ; preds = %11, %.thread64, %8, %.thread56, %5, %.thread49, %1, %3, %.thread96, %23, %.thread88, %20, %.thread80, %17, %.thread72, %14, %29, %.thread112, %26, %.thread104, %.thread120, %32, %35, %38, %.thread128
  ret void
}